target datalayout = "e-m:e-p270:32:32-p271:32:32-p272:64:64-i64:64-i128:128-f80:128-n8:16:32:64-S128"
target triple = "x86_64-pc-linux-gnu"

%struct.job_record = type { i32, ptr, ptr, ptr, ptr, i16, i32, i32, i32, ptr, i32, ptr, ptr, i16, ptr, double, i64, ptr, ptr, ptr, ptr, ptr, ptr, i32, ptr, i32, i64, i64, i32, i32, ptr, i16, i64, i64, i8, i32, ptr, ptr, ptr, ptr, ptr, ptr, ptr, ptr, i32, ptr, ptr, i32, ptr, i32, ptr, i32, ptr, i32, ptr, ptr, ptr, ptr, ptr, ptr, i32, i16, i64, ptr, ptr, ptr, ptr, %struct.acct_policy_limit_set_t, i16, ptr, ptr, ptr, ptr, ptr, i32, ptr, ptr, ptr, ptr, ptr, i32, i32, ptr, ptr, ptr, i16, ptr, ptr, i8, ptr, ptr, i64, i64, i8, i32, i32, i8, i32, ptr, i32, i64, i32, ptr, ptr, ptr, i8, i16, i64, i32, ptr, ptr, ptr, ptr, ptr, i16, i32, ptr, ptr, ptr, ptr, i32, ptr, i32, i16, i64, ptr, i32, i32, ptr, i64, ptr, ptr, i64, i32, i32, i64, i32, i32, ptr, ptr, ptr, ptr, ptr, ptr, ptr, ptr, ptr, ptr, ptr, ptr, i32, ptr, i16, i16, i16, i16, ptr, i32, i32, i8, i64 }
%struct.acct_policy_limit_set_t = type { i16, i16, ptr }
%struct.node_record = type { ptr, ptr, i16, i64, i64, ptr, ptr, ptr, i16, ptr, i16, i16, i32, i32, i64, ptr, i16, i16, ptr, ptr, ptr, ptr, ptr, i64, i64, ptr, ptr, ptr, ptr, i32, ptr, ptr, i64, i64, i32, ptr, i64, ptr, i32, i16, ptr, ptr, i32, ptr, i32, i8, ptr, i32, i16, i16, ptr, i16, i64, i16, i64, ptr, i64, i32, i16, i64, i16, ptr, i16, i64, ptr, i64, i16, i32, i16, ptr, ptr, ptr, i16, i32, i16, i16, i32, ptr, i16, i32 }

; Function Attrs: nounwind uwtable
define dso_local void @filter_by_node_mcs(ptr noundef %0, i32 noundef %1, ptr noundef %2) #0 {
  %4 = alloca ptr, align 8
  %5 = alloca i32, align 4
  %6 = alloca ptr, align 8
  %7 = alloca ptr, align 8
  %8 = alloca i32, align 4
  store ptr %0, ptr %4, align 8
  store i32 %1, ptr %5, align 4
  store ptr %2, ptr %6, align 8
  call void @llvm.lifetime.start.p0(i64 8, ptr %7) #8
  call void @llvm.lifetime.start.p0(i64 4, ptr %8) #8
  %9 = load ptr, ptr %4, align 8
  %10 = getelementptr inbounds nuw %struct.job_record, ptr %9, i32 0, i32 71
  %11 = load ptr, ptr %10, align 8
  %12 = icmp ne ptr %11, null
  br i1 %12, label %13, label %62

13:                                               ; preds = %3
  %14 = load i32, ptr %5, align 4
  %15 = icmp eq i32 %14, 1
  br i1 %15, label %16, label %62

16:                                               ; preds = %13
  store i32 0, ptr %8, align 4
  br label %17

17:                                               ; preds = %58, %16
  %18 = call ptr @next_node(ptr noundef %8)
  store ptr %18, ptr %7, align 8
  %19 = icmp ne ptr %18, null
  br i1 %19, label %20, label %61

20:                                               ; preds = %17
  %21 = load ptr, ptr %7, align 8
  %22 = getelementptr inbounds nuw %struct.node_record, ptr %21, i32 0, i32 35
  %23 = load ptr, ptr %22, align 8
  %24 = icmp ne ptr %23, null
  br i1 %24, label %25, label %40

25:                                               ; preds = %20
  %26 = load ptr, ptr %7, align 8
  %27 = getelementptr inbounds nuw %struct.node_record, ptr %26, i32 0, i32 35
  %28 = load ptr, ptr %27, align 8
  %29 = load ptr, ptr %4, align 8
  %30 = getelementptr inbounds nuw %struct.job_record, ptr %29, i32 0, i32 71
  %31 = load ptr, ptr %30, align 8
  %32 = call i32 @xstrcmp(ptr noundef %28, ptr noundef %31)
  %33 = icmp ne i32 %32, 0
  br i1 %33, label %34, label %40

34:                                               ; preds = %25
  %35 = load ptr, ptr %6, align 8
  %36 = load ptr, ptr %7, align 8
  %37 = getelementptr inbounds nuw %struct.node_record, ptr %36, i32 0, i32 29
  %38 = load i32, ptr %37, align 8
  %39 = zext i32 %38 to i64
  call void @bit_clear(ptr noundef %35, i64 noundef %39)
  br label %40

40:                                               ; preds = %34, %25, %20
  %41 = load ptr, ptr %7, align 8
  %42 = getelementptr inbounds nuw %struct.node_record, ptr %41, i32 0, i32 35
  %43 = load ptr, ptr %42, align 8
  %44 = icmp eq ptr %43, null
  br i1 %44, label %45, label %57

45:                                               ; preds = %40
  %46 = load ptr, ptr %7, align 8
  %47 = getelementptr inbounds nuw %struct.node_record, ptr %46, i32 0, i32 62
  %48 = load i16, ptr %47, align 8
  %49 = zext i16 %48 to i32
  %50 = icmp ne i32 %49, 0
  br i1 %50, label %51, label %57

51:                                               ; preds = %45
  %52 = load ptr, ptr %6, align 8
  %53 = load ptr, ptr %7, align 8
  %54 = getelementptr inbounds nuw %struct.node_record, ptr %53, i32 0, i32 29
  %55 = load i32, ptr %54, align 8
  %56 = zext i32 %55 to i64
  call void @bit_clear(ptr noundef %52, i64 noundef %56)
  br label %57

57:                                               ; preds = %51, %45, %40
  br label %58

58:                                               ; preds = %57
  %59 = load i32, ptr %8, align 4
  %60 = add nsw i32 %59, 1
  store i32 %60, ptr %8, align 4
  br label %17, !llvm.loop !22

61:                                               ; preds = %17
  br label %82

62:                                               ; preds = %13, %3
  store i32 0, ptr %8, align 4
  br label %63

63:                                               ; preds = %78, %62
  %64 = call ptr @next_node(ptr noundef %8)
  store ptr %64, ptr %7, align 8
  %65 = icmp ne ptr %64, null
  br i1 %65, label %66, label %81

66:                                               ; preds = %63
  %67 = load ptr, ptr %7, align 8
  %68 = getelementptr inbounds nuw %struct.node_record, ptr %67, i32 0, i32 35
  %69 = load ptr, ptr %68, align 8
  %70 = icmp ne ptr %69, null
  br i1 %70, label %71, label %77

71:                                               ; preds = %66
  %72 = load ptr, ptr %6, align 8
  %73 = load ptr, ptr %7, align 8
  %74 = getelementptr inbounds nuw %struct.node_record, ptr %73, i32 0, i32 29
  %75 = load i32, ptr %74, align 8
  %76 = zext i32 %75 to i64
  call void @bit_clear(ptr noundef %72, i64 noundef %76)
  br label %77

77:                                               ; preds = %71, %66
  br label %78

78:                                               ; preds = %77
  %79 = load i32, ptr %8, align 4
  %80 = add nsw i32 %79, 1
  store i32 %80, ptr %8, align 4
  br label %63, !llvm.loop !23

81:                                               ; preds = %63
  br label %82

82:                                               ; preds = %81, %61
  call void @llvm.lifetime.end.p0(i64 4, ptr %8) #8
  call void @llvm.lifetime.end.p0(i64 8, ptr %7) #8
  ret void
}