; Function Attrs: nounwind uwtable
define dso_local void @filter_by_node_mcs(ptr noundef readonly captures(none) %0, i32 noundef %1, ptr noundef %2) local_unnamed_addr #0 {
  %4 = alloca i32, align 4
  call void @llvm.lifetime.start.p0(i64 4, ptr nonnull %4) #14
  %5 = getelementptr inbounds nuw i8, ptr %0, i64 536
  %6 = load ptr, ptr %5, align 8
  %7 = icmp ne ptr %6, null
  %8 = icmp eq i32 %1, 1
  %or.cond = and i1 %8, %7
  store i32 0, ptr %4, align 4
  %9 = call ptr @next_node(ptr noundef nonnull %4) #14
  %.not1825 = icmp eq ptr %9, null
  br i1 %or.cond, label %.preheader, label %.preheader22

.preheader22:                                     ; preds = %3
  br i1 %.not1825, label %.loopexit, label %.lr.ph

.preheader:                                       ; preds = %3
  br i1 %.not1825, label %.loopexit, label %.lr.ph26

.lr.ph26:                                         ; preds = %.preheader, %28
  %10 = phi ptr [ %31, %28 ], [ %9, %.preheader ]
  %11 = getelementptr inbounds nuw i8, ptr %10, i64 256
  %12 = load ptr, ptr %11, align 8
  %.not19 = icmp eq ptr %12, null
  br i1 %.not19, label %.thread, label %13

13:                                               ; preds = %.lr.ph26
  %14 = load ptr, ptr %5, align 8
  %15 = call i32 @xstrcmp(ptr noundef nonnull %12, ptr noundef %14) #14
  %.not20 = icmp eq i32 %15, 0
  br i1 %.not20, label %20, label %16

16:                                               ; preds = %13
  %17 = getelementptr inbounds nuw i8, ptr %10, i64 208
  %18 = load i32, ptr %17, align 8
  %19 = zext i32 %18 to i64
  call void @bit_clear(ptr noundef %2, i64 noundef %19) #14
  br label %20

20:                                               ; preds = %16, %13
  %.pr = load ptr, ptr %11, align 8
  %21 = icmp eq ptr %.pr, null
  br i1 %21, label %.thread, label %28

.thread:                                          ; preds = %.lr.ph26, %20
  %22 = getelementptr inbounds nuw i8, ptr %10, i64 432
  %23 = load i16, ptr %22, align 8
  %.not21 = icmp eq i16 %23, 0
  br i1 %.not21, label %28, label %24

24:                                               ; preds = %.thread
  %25 = getelementptr inbounds nuw i8, ptr %10, i64 208
  %26 = load i32, ptr %25, align 8
  %27 = zext i32 %26 to i64
  call void @bit_clear(ptr noundef %2, i64 noundef %27) #14
  br label %28

28:                                               ; preds = %20, %.thread, %24
  %29 = load i32, ptr %4, align 4
  %30 = add nsw i32 %29, 1
  store i32 %30, ptr %4, align 4
  %31 = call ptr @next_node(ptr noundef nonnull %4) #14
  %.not18 = icmp eq ptr %31, null
  br i1 %.not18, label %.loopexit, label %.lr.ph26, !llvm.loop !22

.lr.ph:                                           ; preds = %.preheader22, %39
  %32 = phi ptr [ %42, %39 ], [ %9, %.preheader22 ]
  %33 = getelementptr inbounds nuw i8, ptr %32, i64 256
  %34 = load ptr, ptr %33, align 8
  %.not16 = icmp eq ptr %34, null
  br i1 %.not16, label %39, label %35

35:                                               ; preds = %.lr.ph
  %36 = getelementptr inbounds nuw i8, ptr %32, i64 208
  %37 = load i32, ptr %36, align 8
  %38 = zext i32 %37 to i64
  call void @bit_clear(ptr noundef %2, i64 noundef %38) #14
  br label %39

39:                                               ; preds = %.lr.ph, %35
  %40 = load i32, ptr %4, align 4
  %41 = add nsw i32 %40, 1
  store i32 %41, ptr %4, align 4
  %42 = call ptr @next_node(ptr noundef nonnull %4) #14
  %.not = icmp eq ptr %42, null
  br i1 %.not, label %.loopexit, label %.lr.ph, !llvm.loop !23

.loopexit:                                        ; preds = %39, %28, %.preheader22, %.preheader
  call void @llvm.lifetime.end.p0(i64 4, ptr nonnull %4) #14
  ret void
}